#include <math.h>
#include <stdio.h>
#include <stdlib.h>
#include <string.h>



int check(int m,int n,int k)
{
    int i,out;
    out=0;
    for(i=m;i<=n;i++)
    {
               if(i%k==0)
               {
                         if(i-m<k)
                         {
                                  printf("%d",i);
                                  out=1;
                         }
                         else 
                         {
                              printf(",%d",i);
                              out=1;
                         }         
               }      
               
    }
    if(out==0)
    {
              printf("no\n");
    }
    else printf("\n");
    return k;
}

int main()
{
    int n,i,num[100],sum=0,min=100,max=0;
    float ave;
    scanf("%d",&n);
    for (i=1;i<=n;i++)
    {
        scanf("%d",&num[i]);
        sum+=num[i];
        if (min>num[i]) min=num[i];
        if (max<num[i]) max=num[i];
    }
    ave=(float)sum/n;
    if (max-ave==ave-min) printf("%d,%d",min,max);
    else if(max-ave>ave-min) printf("%d",max);
    else printf("%d",min);

    return 0;
}