; ModuleID = '21/281.c'
source_filename = "21/281.c"
target datalayout = "e-m:e-p270:32:32-p271:32:32-p272:64:64-i64:64-f80:128-n8:16:32:64-S128"
target triple = "x86_64-pc-linux-gnu"

@.str = private unnamed_addr constant [3 x i8] c"%d\00", align 1
@.str.1 = private unnamed_addr constant [4 x i8] c",%d\00", align 1
@.str.2 = private unnamed_addr constant [4 x i8] c"no\0A\00", align 1
@.str.3 = private unnamed_addr constant [2 x i8] c"\0A\00", align 1
@.str.4 = private unnamed_addr constant [6 x i8] c"%d,%d\00", align 1

; Function Attrs: noinline nounwind uwtable
define dso_local i32 @check(i32 %0, i32 %1, i32 %2) #0 {
  %4 = alloca i32, align 4
  %5 = alloca i32, align 4
  %6 = alloca i32, align 4
  %7 = alloca i32, align 4
  %8 = alloca i32, align 4
  store i32 %0, i32* %4, align 4
  store i32 %1, i32* %5, align 4
  store i32 %2, i32* %6, align 4
  store i32 0, i32* %8, align 4
  %9 = load i32, i32* %4, align 4
  store i32 %9, i32* %7, align 4
  br label %10

10:                                               ; preds = %33, %3
  %11 = load i32, i32* %7, align 4
  %12 = load i32, i32* %5, align 4
  %13 = icmp sle i32 %11, %12
  br i1 %13, label %14, label %36

14:                                               ; preds = %10
  %15 = load i32, i32* %7, align 4
  %16 = load i32, i32* %6, align 4
  %17 = srem i32 %15, %16
  %18 = icmp eq i32 %17, 0
  br i1 %18, label %19, label %32

19:                                               ; preds = %14
  %20 = load i32, i32* %7, align 4
  %21 = load i32, i32* %4, align 4
  %22 = sub nsw i32 %20, %21
  %23 = load i32, i32* %6, align 4
  %24 = icmp slt i32 %22, %23
  br i1 %24, label %25, label %28

25:                                               ; preds = %19
  %26 = load i32, i32* %7, align 4
  %27 = call i32 (i8*, ...) @printf(i8* getelementptr inbounds ([3 x i8], [3 x i8]* @.str, i64 0, i64 0), i32 %26)
  store i32 1, i32* %8, align 4
  br label %31

28:                                               ; preds = %19
  %29 = load i32, i32* %7, align 4
  %30 = call i32 (i8*, ...) @printf(i8* getelementptr inbounds ([4 x i8], [4 x i8]* @.str.1, i64 0, i64 0), i32 %29)
  store i32 1, i32* %8, align 4
  br label %31

31:                                               ; preds = %28, %25
  br label %32

32:                                               ; preds = %31, %14
  br label %33

33:                                               ; preds = %32
  %34 = load i32, i32* %7, align 4
  %35 = add nsw i32 %34, 1
  store i32 %35, i32* %7, align 4
  br label %10

36:                                               ; preds = %10
  %37 = load i32, i32* %8, align 4
  %38 = icmp eq i32 %37, 0
  br i1 %38, label %39, label %41

39:                                               ; preds = %36
  %40 = call i32 (i8*, ...) @printf(i8* getelementptr inbounds ([4 x i8], [4 x i8]* @.str.2, i64 0, i64 0))
  br label %43

41:                                               ; preds = %36
  %42 = call i32 (i8*, ...) @printf(i8* getelementptr inbounds ([2 x i8], [2 x i8]* @.str.3, i64 0, i64 0))
  br label %43

43:                                               ; preds = %41, %39
  %44 = load i32, i32* %6, align 4
  ret i32 %44
}

declare dso_local i32 @printf(i8*, ...) #1

; Function Attrs: noinline nounwind uwtable
define dso_local i32 @main() #0 {
  %1 = alloca i32, align 4
  %2 = alloca i32, align 4
  %3 = alloca i32, align 4
  %4 = alloca [100 x i32], align 16
  %5 = alloca i32, align 4
  %6 = alloca i32, align 4
  %7 = alloca i32, align 4
  %8 = alloca float, align 4
  store i32 0, i32* %1, align 4
  store i32 0, i32* %5, align 4
  store i32 100, i32* %6, align 4
  store i32 0, i32* %7, align 4
  %9 = call i32 (i8*, ...) @__isoc99_scanf(i8* getelementptr inbounds ([3 x i8], [3 x i8]* @.str, i64 0, i64 0), i32* %2)
  store i32 1, i32* %3, align 4
  br label %10

10:                                               ; preds = %49, %0
  %11 = load i32, i32* %3, align 4
  %12 = load i32, i32* %2, align 4
  %13 = icmp sle i32 %11, %12
  br i1 %13, label %14, label %52

14:                                               ; preds = %10
  %15 = load i32, i32* %3, align 4
  %16 = sext i32 %15 to i64
  %17 = getelementptr inbounds [100 x i32], [100 x i32]* %4, i64 0, i64 %16
  %18 = call i32 (i8*, ...) @__isoc99_scanf(i8* getelementptr inbounds ([3 x i8], [3 x i8]* @.str, i64 0, i64 0), i32* %17)
  %19 = load i32, i32* %3, align 4
  %20 = sext i32 %19 to i64
  %21 = getelementptr inbounds [100 x i32], [100 x i32]* %4, i64 0, i64 %20
  %22 = load i32, i32* %21, align 4
  %23 = load i32, i32* %5, align 4
  %24 = add nsw i32 %23, %22
  store i32 %24, i32* %5, align 4
  %25 = load i32, i32* %6, align 4
  %26 = load i32, i32* %3, align 4
  %27 = sext i32 %26 to i64
  %28 = getelementptr inbounds [100 x i32], [100 x i32]* %4, i64 0, i64 %27
  %29 = load i32, i32* %28, align 4
  %30 = icmp sgt i32 %25, %29
  br i1 %30, label %31, label %36

31:                                               ; preds = %14
  %32 = load i32, i32* %3, align 4
  %33 = sext i32 %32 to i64
  %34 = getelementptr inbounds [100 x i32], [100 x i32]* %4, i64 0, i64 %33
  %35 = load i32, i32* %34, align 4
  store i32 %35, i32* %6, align 4
  br label %36

36:                                               ; preds = %31, %14
  %37 = load i32, i32* %7, align 4
  %38 = load i32, i32* %3, align 4
  %39 = sext i32 %38 to i64
  %40 = getelementptr inbounds [100 x i32], [100 x i32]* %4, i64 0, i64 %39
  %41 = load i32, i32* %40, align 4
  %42 = icmp slt i32 %37, %41
  br i1 %42, label %43, label %48

43:                                               ; preds = %36
  %44 = load i32, i32* %3, align 4
  %45 = sext i32 %44 to i64
  %46 = getelementptr inbounds [100 x i32], [100 x i32]* %4, i64 0, i64 %45
  %47 = load i32, i32* %46, align 4
  store i32 %47, i32* %7, align 4
  br label %48

48:                                               ; preds = %43, %36
  br label %49

49:                                               ; preds = %48
  %50 = load i32, i32* %3, align 4
  %51 = add nsw i32 %50, 1
  store i32 %51, i32* %3, align 4
  br label %10

52:                                               ; preds = %10
  %53 = load i32, i32* %5, align 4
  %54 = sitofp i32 %53 to float
  %55 = load i32, i32* %2, align 4
  %56 = sitofp i32 %55 to float
  %57 = fdiv float %54, %56
  store float %57, float* %8, align 4
  %58 = load i32, i32* %7, align 4
  %59 = sitofp i32 %58 to float
  %60 = load float, float* %8, align 4
  %61 = fsub float %59, %60
  %62 = load float, float* %8, align 4
  %63 = load i32, i32* %6, align 4
  %64 = sitofp i32 %63 to float
  %65 = fsub float %62, %64
  %66 = fcmp oeq float %61, %65
  br i1 %66, label %67, label %71

67:                                               ; preds = %52
  %68 = load i32, i32* %6, align 4
  %69 = load i32, i32* %7, align 4
  %70 = call i32 (i8*, ...) @printf(i8* getelementptr inbounds ([6 x i8], [6 x i8]* @.str.4, i64 0, i64 0), i32 %68, i32 %69)
  br label %88

71:                                               ; preds = %52
  %72 = load i32, i32* %7, align 4
  %73 = sitofp i32 %72 to float
  %74 = load float, float* %8, align 4
  %75 = fsub float %73, %74
  %76 = load float, float* %8, align 4
  %77 = load i32, i32* %6, align 4
  %78 = sitofp i32 %77 to float
  %79 = fsub float %76, %78
  %80 = fcmp ogt float %75, %79
  br i1 %80, label %81, label %84

81:                                               ; preds = %71
  %82 = load i32, i32* %7, align 4
  %83 = call i32 (i8*, ...) @printf(i8* getelementptr inbounds ([3 x i8], [3 x i8]* @.str, i64 0, i64 0), i32 %82)
  br label %87

84:                                               ; preds = %71
  %85 = load i32, i32* %6, align 4
  %86 = call i32 (i8*, ...) @printf(i8* getelementptr inbounds ([3 x i8], [3 x i8]* @.str, i64 0, i64 0), i32 %85)
  br label %87

87:                                               ; preds = %84, %81
  br label %88

88:                                               ; preds = %87, %67
  ret i32 0
}

declare dso_local i32 @__isoc99_scanf(i8*, ...) #1


!llvm.module.flags = !{!0}
!llvm.ident = !{!1}

!0 = !{i32 1, !"wchar_size", i32 4}
!1 = !{!"clang version 10.0.0-4ubuntu1 "}
